target datalayout = "e-m:e-p270:32:32-p271:32:32-p272:64:64-i64:64-i128:128-f80:128-n8:16:32:64-S128"
target triple = "x86_64-pc-linux-gnu"

%struct.mbedtls_mpi = type { ptr, i16, i16 }
%struct.mbedtls_rsa_context = type { i32, i64, %struct.mbedtls_mpi, %struct.mbedtls_mpi, %struct.mbedtls_mpi, %struct.mbedtls_mpi, %struct.mbedtls_mpi, %struct.mbedtls_mpi, %struct.mbedtls_mpi, %struct.mbedtls_mpi, %struct.mbedtls_mpi, %struct.mbedtls_mpi, %struct.mbedtls_mpi, %struct.mbedtls_mpi, %struct.mbedtls_mpi, i32, i32 }

@.str = private unnamed_addr constant [117 x i8] c"generated/home/dtcxzyw/WorkSpace/Projects/compilers/llvm-opt-benchmark/bench/lief/bench_build/mbed_src/library/rsa.c\00", align 1

; Function Attrs: inlinehint nounwind uwtable
define internal i32 @mbedtls_error_add(i32 noundef %0, i32 noundef %1, ptr noundef %2, i32 noundef %3) #3 {
  %5 = alloca i32, align 4
  %6 = alloca i32, align 4
  %7 = alloca ptr, align 8
  %8 = alloca i32, align 4
  store i32 %0, ptr %5, align 4, !tbaa !12
  store i32 %1, ptr %6, align 4, !tbaa !12
  store ptr %2, ptr %7, align 8, !tbaa !8
  store i32 %3, ptr %8, align 4, !tbaa !12
  %9 = load i32, ptr %5, align 4, !tbaa !12
  %10 = load i32, ptr %6, align 4, !tbaa !12
  %11 = add nsw i32 %9, %10
  ret i32 %11
}

; Function Attrs: nounwind uwtable
define hidden i32 @mbedtls_rsa_rsaes_pkcs1_v15_encrypt(ptr noundef %0, ptr noundef %1, ptr noundef %2, i64 noundef %3, ptr noundef %4, ptr noundef %5) #0 {
  %7 = alloca i32, align 4
  %8 = alloca ptr, align 8
  %9 = alloca ptr, align 8
  %10 = alloca ptr, align 8
  %11 = alloca i64, align 8
  %12 = alloca ptr, align 8
  %13 = alloca ptr, align 8
  %14 = alloca i64, align 8
  %15 = alloca i64, align 8
  %16 = alloca i32, align 4
  %17 = alloca ptr, align 8
  %18 = alloca i32, align 4
  %19 = alloca i32, align 4
  store ptr %0, ptr %8, align 8, !tbaa !3
  store ptr %1, ptr %9, align 8, !tbaa !26
  store ptr %2, ptr %10, align 8, !tbaa !26
  store i64 %3, ptr %11, align 8, !tbaa !10
  store ptr %4, ptr %12, align 8, !tbaa !8
  store ptr %5, ptr %13, align 8, !tbaa !8
  call void @llvm.lifetime.start.p0(i64 8, ptr %14) #9
  call void @llvm.lifetime.start.p0(i64 8, ptr %15) #9
  call void @llvm.lifetime.start.p0(i64 4, ptr %16) #9
  store i32 -110, ptr %16, align 4, !tbaa !12
  call void @llvm.lifetime.start.p0(i64 8, ptr %17) #9
  %20 = load ptr, ptr %13, align 8, !tbaa !8
  store ptr %20, ptr %17, align 8, !tbaa !8
  %21 = load ptr, ptr %8, align 8, !tbaa !3
  %22 = getelementptr inbounds nuw %struct.mbedtls_rsa_context, ptr %21, i32 0, i32 1
  %23 = load i64, ptr %22, align 8, !tbaa !19
  store i64 %23, ptr %15, align 8, !tbaa !10
  %24 = load i64, ptr %11, align 8, !tbaa !10
  %25 = add i64 %24, 11
  %26 = load i64, ptr %11, align 8, !tbaa !10
  %27 = icmp ult i64 %25, %26
  br i1 %27, label %33, label %28

28:                                               ; preds = %6
  %29 = load i64, ptr %15, align 8, !tbaa !10
  %30 = load i64, ptr %11, align 8, !tbaa !10
  %31 = add i64 %30, 11
  %32 = icmp ult i64 %29, %31
  br i1 %32, label %33, label %34

33:                                               ; preds = %28, %6
  store i32 -16512, ptr %7, align 4
  store i32 1, ptr %18, align 4
  br label %100

34:                                               ; preds = %28
  %35 = load i64, ptr %15, align 8, !tbaa !10
  %36 = sub i64 %35, 3
  %37 = load i64, ptr %11, align 8, !tbaa !10
  %38 = sub i64 %36, %37
  store i64 %38, ptr %14, align 8, !tbaa !10
  %39 = load ptr, ptr %17, align 8, !tbaa !8
  %40 = getelementptr inbounds nuw i8, ptr %39, i32 1
  store ptr %40, ptr %17, align 8, !tbaa !8
  store i8 0, ptr %39, align 1, !tbaa !33
  %41 = load ptr, ptr %9, align 8, !tbaa !26
  %42 = icmp eq ptr %41, null
  br i1 %42, label %43, label %44

43:                                               ; preds = %34
  store i32 -16512, ptr %7, align 4
  store i32 1, ptr %18, align 4
  br label %100

44:                                               ; preds = %34
  %45 = load ptr, ptr %17, align 8, !tbaa !8
  %46 = getelementptr inbounds nuw i8, ptr %45, i32 1
  store ptr %46, ptr %17, align 8, !tbaa !8
  store i8 2, ptr %45, align 1, !tbaa !33
  br label %47

47:                                               ; preds = %85, %44
  %48 = load i64, ptr %14, align 8, !tbaa !10
  %49 = add i64 %48, -1
  store i64 %49, ptr %14, align 8, !tbaa !10
  %50 = icmp ugt i64 %48, 0
  br i1 %50, label %51, label %86

51:                                               ; preds = %47
  call void @llvm.lifetime.start.p0(i64 4, ptr %19) #9
  store i32 100, ptr %19, align 4, !tbaa !12
  br label %52

52:                                               ; preds = %69, %51
  %53 = load ptr, ptr %9, align 8, !tbaa !26
  %54 = load ptr, ptr %10, align 8, !tbaa !26
  %55 = load ptr, ptr %17, align 8, !tbaa !8
  %56 = call i32 %53(ptr noundef %54, ptr noundef %55, i64 noundef 1)
  store i32 %56, ptr %16, align 4, !tbaa !12
  br label %57

57:                                               ; preds = %52
  %58 = load ptr, ptr %17, align 8, !tbaa !8
  %59 = load i8, ptr %58, align 1, !tbaa !33
  %60 = zext i8 %59 to i32
  %61 = icmp eq i32 %60, 0
  br i1 %61, label %62, label %69

62:                                               ; preds = %57
  %63 = load i32, ptr %19, align 4, !tbaa !12
  %64 = add nsw i32 %63, -1
  store i32 %64, ptr %19, align 4, !tbaa !12
  %65 = icmp ne i32 %64, 0
  br i1 %65, label %66, label %69

66:                                               ; preds = %62
  %67 = load i32, ptr %16, align 4, !tbaa !12
  %68 = icmp eq i32 %67, 0
  br label %69

69:                                               ; preds = %66, %62, %57
  %70 = phi i1 [ false, %62 ], [ false, %57 ], [ %68, %66 ]
  br i1 %70, label %52, label %71, !llvm.loop !38

71:                                               ; preds = %69
  %72 = load i32, ptr %19, align 4, !tbaa !12
  %73 = icmp eq i32 %72, 0
  br i1 %73, label %77, label %74

74:                                               ; preds = %71
  %75 = load i32, ptr %16, align 4, !tbaa !12
  %76 = icmp ne i32 %75, 0
  br i1 %76, label %77, label %80

77:                                               ; preds = %74, %71
  %78 = load i32, ptr %16, align 4, !tbaa !12
  %79 = call i32 @mbedtls_error_add(i32 noundef -17536, i32 noundef %78, ptr noundef @.str, i32 noundef 1869)
  store i32 %79, ptr %7, align 4
  store i32 1, ptr %18, align 4
  br label %83

80:                                               ; preds = %74
  %81 = load ptr, ptr %17, align 8, !tbaa !8
  %82 = getelementptr inbounds nuw i8, ptr %81, i32 1
  store ptr %82, ptr %17, align 8, !tbaa !8
  store i32 0, ptr %18, align 4
  br label %83

83:                                               ; preds = %80, %77
  call void @llvm.lifetime.end.p0(i64 4, ptr %19) #9
  %84 = load i32, ptr %18, align 4
  switch i32 %84, label %100 [
    i32 0, label %85
  ]

85:                                               ; preds = %83
  br label %47, !llvm.loop !39

86:                                               ; preds = %47
  %87 = load ptr, ptr %17, align 8, !tbaa !8
  %88 = getelementptr inbounds nuw i8, ptr %87, i32 1
  store ptr %88, ptr %17, align 8, !tbaa !8
  store i8 0, ptr %87, align 1, !tbaa !33
  %89 = load i64, ptr %11, align 8, !tbaa !10
  %90 = icmp ne i64 %89, 0
  br i1 %90, label %91, label %95

91:                                               ; preds = %86
  %92 = load ptr, ptr %17, align 8, !tbaa !8
  %93 = load ptr, ptr %12, align 8, !tbaa !8
  %94 = load i64, ptr %11, align 8, !tbaa !10
  call void @llvm.memcpy.p0.p0.i64(ptr align 1 %92, ptr align 1 %93, i64 %94, i1 false)
  br label %95

95:                                               ; preds = %91, %86
  %96 = load ptr, ptr %8, align 8, !tbaa !3
  %97 = load ptr, ptr %13, align 8, !tbaa !8
  %98 = load ptr, ptr %13, align 8, !tbaa !8
  %99 = call i32 @mbedtls_rsa_public(ptr noundef %96, ptr noundef %97, ptr noundef %98)
  store i32 %99, ptr %7, align 4
  store i32 1, ptr %18, align 4
  br label %100

100:                                              ; preds = %95, %83, %43, %33
  call void @llvm.lifetime.end.p0(i64 8, ptr %17) #9
  call void @llvm.lifetime.end.p0(i64 4, ptr %16) #9
  call void @llvm.lifetime.end.p0(i64 8, ptr %15) #9
  call void @llvm.lifetime.end.p0(i64 8, ptr %14) #9
  %101 = load i32, ptr %7, align 4
  ret i32 %101
}