; Function Attrs: nounwind uwtable
define hidden range(i32 -2147483648, 2147466624) i32 @mbedtls_rsa_rsaes_pkcs1_v15_encrypt(ptr noundef %0, ptr noundef readonly %1, ptr noundef %2, i64 noundef %3, ptr noundef readonly captures(none) %4, ptr noundef %5) local_unnamed_addr #0 {
  %7 = getelementptr inbounds nuw i8, ptr %0, i64 8
  %8 = load i64, ptr %7, align 8, !tbaa !12
  %9 = icmp ugt i64 %3, -12
  %10 = add nuw i64 %3, 11
  %11 = icmp ult i64 %8, %10
  %or.cond = select i1 %9, i1 true, i1 %11
  br i1 %or.cond, label %37, label %12

12:                                               ; preds = %6
  store i8 0, ptr %5, align 1, !tbaa !23
  %13 = icmp eq ptr %1, null
  br i1 %13, label %37, label %14

14:                                               ; preds = %12
  %15 = getelementptr inbounds nuw i8, ptr %5, i64 1
  %reass.sub = sub i64 %8, %3
  %16 = getelementptr inbounds nuw i8, ptr %5, i64 2
  store i8 2, ptr %15, align 1, !tbaa !23
  %.not52 = icmp eq i64 %reass.sub, 3
  br i1 %.not52, label %._crit_edge, label %.preheader.preheader

.preheader.preheader:                             ; preds = %14
  %17 = add i64 %reass.sub, -4
  br label %.preheader

.preheader:                                       ; preds = %.preheader.preheader, %30
  %18 = phi i64 [ %32, %30 ], [ %17, %.preheader.preheader ]
  %.03553 = phi ptr [ %31, %30 ], [ %16, %.preheader.preheader ]
  br label %19

19:                                               ; preds = %.preheader, %23
  %.0 = phi i32 [ %24, %23 ], [ 100, %.preheader ]
  %20 = tail call i32 %1(ptr noundef %2, ptr noundef nonnull %.03553, i64 noundef 1) #14
  %21 = load i8, ptr %.03553, align 1, !tbaa !23
  %22 = icmp eq i8 %21, 0
  br i1 %22, label %23, label %.critedge

23:                                               ; preds = %19
  %24 = add nsw i32 %.0, -1
  %25 = icmp ne i32 %24, 0
  %26 = icmp eq i32 %20, 0
  %or.cond3 = select i1 %25, i1 %26, i1 false
  br i1 %or.cond3, label %19, label %.critedge, !llvm.loop !27

.critedge:                                        ; preds = %23, %19
  %.1 = phi i32 [ %24, %23 ], [ %.0, %19 ]
  %27 = icmp ne i32 %.1, 0
  %28 = icmp eq i32 %20, 0
  %or.cond.not = select i1 %27, i1 %28, i1 false
  br i1 %or.cond.not, label %30, label %.thread

.thread:                                          ; preds = %.critedge
  %29 = add nsw i32 %20, -17536
  br label %37

30:                                               ; preds = %.critedge
  %31 = getelementptr inbounds nuw i8, ptr %.03553, i64 1
  %32 = add i64 %18, -1
  %.not = icmp eq i64 %18, 0
  br i1 %.not, label %._crit_edge, label %.preheader

._crit_edge:                                      ; preds = %30, %14
  %.035.lcssa = phi ptr [ %16, %14 ], [ %31, %30 ]
  store i8 0, ptr %.035.lcssa, align 1, !tbaa !23
  %.not45 = icmp eq i64 %3, 0
  br i1 %.not45, label %35, label %33

33:                                               ; preds = %._crit_edge
  %34 = getelementptr inbounds nuw i8, ptr %.035.lcssa, i64 1
  tail call void @llvm.memcpy.p0.p0.i64(ptr nonnull align 1 %34, ptr align 1 %4, i64 %3, i1 false)
  br label %35

35:                                               ; preds = %33, %._crit_edge
  %36 = tail call i32 @mbedtls_rsa_public(ptr noundef %0, ptr noundef nonnull %5, ptr noundef nonnull %5)
  br label %37

37:                                               ; preds = %.thread, %12, %6, %35
  %.037 = phi i32 [ %36, %35 ], [ -16512, %6 ], [ -16512, %12 ], [ %29, %.thread ]
  ret i32 %.037
}